; Function Attrs: mustprogress nofree norecurse nosync nounwind willreturn memory(readwrite, argmem: write, inaccessiblemem: none) uwtable
define void @_ZN5ImGui15DebugLocateItemEj(i32 noundef %0) local_unnamed_addr #50 {
  %2 = load ptr, ptr @GImGui, align 8, !tbaa !216
  %3 = getelementptr inbounds nuw i8, ptr %2, i64 7468
  store i32 %0, ptr %3, align 4, !tbaa !644
  %4 = getelementptr inbounds nuw i8, ptr %2, i64 10017
  store i8 2, ptr %4, align 1, !tbaa !1026
  %5 = getelementptr inbounds nuw i8, ptr %2, i64 10018
  store i8 0, ptr %5, align 2, !tbaa !652
  ret void
}